; Function Attrs: mustprogress nounwind uwtable
define hidden void @_ZN6google8protobuf10TextFormat7Printer27SetDefaultFieldValuePrinterEPKNS1_21FastFieldValuePrinterE(ptr noundef nonnull align 8 captures(none) dereferenceable(136) %0, ptr noundef %1) local_unnamed_addr #11 align 2 {
  %3 = getelementptr inbounds nuw i8, ptr %0, i64 24
  %4 = load ptr, ptr %3, align 8, !tbaa !22
  store ptr %1, ptr %3, align 8, !tbaa !22
  %.not.i.i = icmp eq ptr %4, null
  br i1 %.not.i.i, label %_ZNSt10unique_ptrIKN6google8protobuf10TextFormat21FastFieldValuePrinterESt14default_deleteIS4_EE5resetEPS4_.exit, label %_ZNKSt14default_deleteIKN6google8protobuf10TextFormat21FastFieldValuePrinterEEclEPS4_.exit.i.i

_ZNKSt14default_deleteIKN6google8protobuf10TextFormat21FastFieldValuePrinterEEclEPS4_.exit.i.i: ; preds = %2
  %5 = load ptr, ptr %4, align 8, !tbaa !24
  %6 = getelementptr inbounds nuw i8, ptr %5, i64 8
  %7 = load ptr, ptr %6, align 8
  tail call void %7(ptr noundef nonnull align 8 dereferenceable(8) %4) #31
  br label %_ZNSt10unique_ptrIKN6google8protobuf10TextFormat21FastFieldValuePrinterESt14default_deleteIS4_EE5resetEPS4_.exit

_ZNSt10unique_ptrIKN6google8protobuf10TextFormat21FastFieldValuePrinterESt14default_deleteIS4_EE5resetEPS4_.exit: ; preds = %2, %_ZNKSt14default_deleteIKN6google8protobuf10TextFormat21FastFieldValuePrinterEEclEPS4_.exit.i.i
  ret void
}